target datalayout = "e-m:e-p270:32:32-p271:32:32-p272:64:64-i64:64-i128:128-f80:128-n8:16:32:64-S128"
target triple = "x86_64-pc-linux-gnu"

; Function Attrs: inlinehint nounwind uwtable
define internal i32 @ChannelwiseMultiply(i32 noundef %0, i32 noundef %1) #2 {
  %3 = alloca i32, align 4
  %4 = alloca i32, align 4
  %5 = alloca i32, align 4
  %6 = alloca i32, align 4
  %7 = alloca i32, align 4
  store i32 %0, ptr %3, align 4, !tbaa !8
  store i32 %1, ptr %4, align 4, !tbaa !8
  call void @llvm.lifetime.start.p0(i64 4, ptr %5) #6
  store i32 16711935, ptr %5, align 4, !tbaa !8
  call void @llvm.lifetime.start.p0(i64 4, ptr %6) #6
  %8 = load i32, ptr %3, align 4, !tbaa !8
  %9 = load i32, ptr %5, align 4, !tbaa !8
  %10 = and i32 %8, %9
  %11 = load i32, ptr %4, align 4, !tbaa !8
  %12 = mul i32 %10, %11
  %13 = lshr i32 %12, 8
  store i32 %13, ptr %6, align 4, !tbaa !8
  call void @llvm.lifetime.start.p0(i64 4, ptr %7) #6
  %14 = load i32, ptr %3, align 4, !tbaa !8
  %15 = lshr i32 %14, 8
  %16 = load i32, ptr %5, align 4, !tbaa !8
  %17 = and i32 %15, %16
  %18 = load i32, ptr %4, align 4, !tbaa !8
  %19 = mul i32 %17, %18
  store i32 %19, ptr %7, align 4, !tbaa !8
  %20 = load i32, ptr %6, align 4, !tbaa !8
  %21 = load i32, ptr %5, align 4, !tbaa !8
  %22 = and i32 %20, %21
  %23 = load i32, ptr %7, align 4, !tbaa !8
  %24 = load i32, ptr %5, align 4, !tbaa !8
  %25 = xor i32 %24, -1
  %26 = and i32 %23, %25
  %27 = or i32 %22, %26
  call void @llvm.lifetime.end.p0(i64 4, ptr %7) #6
  call void @llvm.lifetime.end.p0(i64 4, ptr %6) #6
  call void @llvm.lifetime.end.p0(i64 4, ptr %5) #6
  ret i32 %27
}

; Function Attrs: nounwind uwtable
define internal i32 @BlendPixelPremult(i32 noundef %0, i32 noundef %1) #0 {
  %3 = alloca i32, align 4
  %4 = alloca i32, align 4
  %5 = alloca i8, align 1
  store i32 %0, ptr %3, align 4, !tbaa !8
  store i32 %1, ptr %4, align 4, !tbaa !8
  call void @llvm.lifetime.start.p0(i64 1, ptr %5) #6
  %6 = load i32, ptr %3, align 4, !tbaa !8
  %7 = lshr i32 %6, 24
  %8 = and i32 %7, 255
  %9 = trunc i32 %8 to i8
  store i8 %9, ptr %5, align 1, !tbaa !23
  %10 = load i32, ptr %3, align 4, !tbaa !8
  %11 = load i32, ptr %4, align 4, !tbaa !8
  %12 = load i8, ptr %5, align 1, !tbaa !23
  %13 = zext i8 %12 to i32
  %14 = sub nsw i32 256, %13
  %15 = call i32 @ChannelwiseMultiply(i32 noundef %11, i32 noundef %14)
  %16 = add i32 %10, %15
  call void @llvm.lifetime.end.p0(i64 1, ptr %5) #6
  ret i32 %16
}

; Function Attrs: nounwind uwtable
define internal void @BlendPixelRowPremult(ptr noundef %0, ptr noundef %1, i32 noundef %2) #0 {
  %4 = alloca ptr, align 8
  %5 = alloca ptr, align 8
  %6 = alloca i32, align 4
  %7 = alloca i32, align 4
  %8 = alloca i8, align 1
  store ptr %0, ptr %4, align 8, !tbaa !58
  store ptr %1, ptr %5, align 8, !tbaa !58
  store i32 %2, ptr %6, align 4, !tbaa !8
  call void @llvm.lifetime.start.p0(i64 4, ptr %7) #6
  store i32 0, ptr %7, align 4, !tbaa !8
  br label %9

9:                                                ; preds = %42, %3
  %10 = load i32, ptr %7, align 4, !tbaa !8
  %11 = load i32, ptr %6, align 4, !tbaa !8
  %12 = icmp slt i32 %10, %11
  br i1 %12, label %13, label %45

13:                                               ; preds = %9
  call void @llvm.lifetime.start.p0(i64 1, ptr %8) #6
  %14 = load ptr, ptr %4, align 8, !tbaa !58
  %15 = load i32, ptr %7, align 4, !tbaa !8
  %16 = sext i32 %15 to i64
  %17 = getelementptr inbounds i32, ptr %14, i64 %16
  %18 = load i32, ptr %17, align 4, !tbaa !8
  %19 = lshr i32 %18, 24
  %20 = and i32 %19, 255
  %21 = trunc i32 %20 to i8
  store i8 %21, ptr %8, align 1, !tbaa !23
  %22 = load i8, ptr %8, align 1, !tbaa !23
  %23 = zext i8 %22 to i32
  %24 = icmp ne i32 %23, 255
  br i1 %24, label %25, label %41

25:                                               ; preds = %13
  %26 = load ptr, ptr %4, align 8, !tbaa !58
  %27 = load i32, ptr %7, align 4, !tbaa !8
  %28 = sext i32 %27 to i64
  %29 = getelementptr inbounds i32, ptr %26, i64 %28
  %30 = load i32, ptr %29, align 4, !tbaa !8
  %31 = load ptr, ptr %5, align 8, !tbaa !58
  %32 = load i32, ptr %7, align 4, !tbaa !8
  %33 = sext i32 %32 to i64
  %34 = getelementptr inbounds i32, ptr %31, i64 %33
  %35 = load i32, ptr %34, align 4, !tbaa !8
  %36 = call i32 @BlendPixelPremult(i32 noundef %30, i32 noundef %35)
  %37 = load ptr, ptr %4, align 8, !tbaa !58
  %38 = load i32, ptr %7, align 4, !tbaa !8
  %39 = sext i32 %38 to i64
  %40 = getelementptr inbounds i32, ptr %37, i64 %39
  store i32 %36, ptr %40, align 4, !tbaa !8
  br label %41

41:                                               ; preds = %25, %13
  call void @llvm.lifetime.end.p0(i64 1, ptr %8) #6
  br label %42

42:                                               ; preds = %41
  %43 = load i32, ptr %7, align 4, !tbaa !8
  %44 = add nsw i32 %43, 1
  store i32 %44, ptr %7, align 4, !tbaa !8
  br label %9, !llvm.loop !91

45:                                               ; preds = %9
  call void @llvm.lifetime.end.p0(i64 4, ptr %7) #6
  ret void
}