; Function Attrs: nofree norecurse nosync nounwind memory(argmem: readwrite) uwtable
define internal void @BlendPixelRowPremult(ptr noundef captures(none) %0, ptr noundef readonly captures(none) %1, i32 noundef %2) #8 {
  %4 = icmp sgt i32 %2, 0
  br i1 %4, label %.lr.ph.preheader, label %._crit_edge

.lr.ph.preheader:                                 ; preds = %3
  %wide.trip.count = zext nneg i32 %2 to i64
  br label %.lr.ph

.lr.ph:                                           ; preds = %.lr.ph.preheader, %22
  %indvars.iv = phi i64 [ 0, %.lr.ph.preheader ], [ %indvars.iv.next, %22 ]
  %5 = getelementptr inbounds nuw i32, ptr %0, i64 %indvars.iv
  %6 = load i32, ptr %5, align 4, !tbaa !15
  %.not = icmp ugt i32 %6, -16777217
  br i1 %.not, label %22, label %7

7:                                                ; preds = %.lr.ph
  %8 = getelementptr inbounds nuw i32, ptr %1, i64 %indvars.iv
  %9 = load i32, ptr %8, align 4, !tbaa !15
  %10 = lshr i32 %6, 24
  %11 = sub nuw nsw i32 256, %10
  %12 = and i32 %9, 16711935
  %13 = mul nuw i32 %12, %11
  %14 = lshr i32 %13, 8
  %15 = lshr i32 %9, 8
  %16 = and i32 %15, 16711935
  %17 = mul nuw i32 %16, %11
  %18 = and i32 %14, 16711935
  %19 = and i32 %17, -16711936
  %20 = add i32 %19, %6
  %21 = add i32 %20, %18
  store i32 %21, ptr %5, align 4, !tbaa !15
  br label %22

22:                                               ; preds = %7, %.lr.ph
  %indvars.iv.next = add nuw nsw i64 %indvars.iv, 1
  %exitcond.not = icmp eq i64 %indvars.iv.next, %wide.trip.count
  br i1 %exitcond.not, label %._crit_edge, label %.lr.ph, !llvm.loop !69

._crit_edge:                                      ; preds = %22, %3
  ret void
}